target datalayout = "e-m:e-p270:32:32-p271:32:32-p272:64:64-i64:64-i128:128-f80:128-n8:16:32:64-S128"
target triple = "x86_64-pc-linux-gnu"

%struct.PJ_XY = type { double, double }
%struct.PJ_LP = type { double, double }
%union.PJ_COORD = type { [4 x double] }
%struct.PJ_XYZ = type { double, double, double }
%struct.PJ_LPZ = type { double, double, double }
%struct.PJconsts = type { ptr, ptr, ptr, ptr, ptr, ptr, ptr, ptr, ptr, ptr, ptr, ptr, i32, ptr, ptr, ptr, ptr, ptr, ptr, ptr, ptr, double, double, double, double, double, double, double, double, double, double, double, double, double, double, double, double, double, double, double, double, double, double, i32, i32, i32, i32, i32, i32, i32, i32, i32, i32, i32, ptr, ptr, ptr, ptr, ptr, ptr, double, double, double, double, double, double, double, double, double, double, double, i32, [7 x double], i32, ptr, ptr, double, double, i32, [4 x i8], %"class.std::shared_ptr", i8, double, i8, %"class.std::__cxx11::basic_string", %"class.std::__cxx11::basic_string", %"class.std::__cxx11::basic_string", i8, %"class.std::vector", i32, %"class.std::vector.3", i32, i8, i8, i8, ptr }
%"class.std::shared_ptr" = type { %"class.std::__shared_ptr" }
%"class.std::__shared_ptr" = type { ptr, %"class.std::__shared_count" }
%"class.std::__shared_count" = type { ptr }
%"class.std::__cxx11::basic_string" = type { %"struct.std::__cxx11::basic_string<char>::_Alloc_hider", i64, %union.anon }
%"struct.std::__cxx11::basic_string<char>::_Alloc_hider" = type { ptr }
%union.anon = type { i64, [8 x i8] }
%"class.std::vector" = type { %"struct.std::_Vector_base" }
%"struct.std::_Vector_base" = type { %"struct.std::_Vector_base<osgeo::proj::operation::GridDescription, std::allocator<osgeo::proj::operation::GridDescription>>::_Vector_impl" }
%"struct.std::_Vector_base<osgeo::proj::operation::GridDescription, std::allocator<osgeo::proj::operation::GridDescription>>::_Vector_impl" = type { %"struct.std::_Vector_base<osgeo::proj::operation::GridDescription, std::allocator<osgeo::proj::operation::GridDescription>>::_Vector_impl_data" }
%"struct.std::_Vector_base<osgeo::proj::operation::GridDescription, std::allocator<osgeo::proj::operation::GridDescription>>::_Vector_impl_data" = type { ptr, ptr, ptr }
%"class.std::vector.3" = type { %"struct.std::_Vector_base.4" }
%"struct.std::_Vector_base.4" = type { %"struct.std::_Vector_base<PJCoordOperation, std::allocator<PJCoordOperation>>::_Vector_impl" }
%"struct.std::_Vector_base<PJCoordOperation, std::allocator<PJCoordOperation>>::_Vector_impl" = type { %"struct.std::_Vector_base<PJCoordOperation, std::allocator<PJCoordOperation>>::_Vector_impl_data" }
%"struct.std::_Vector_base<PJCoordOperation, std::allocator<PJCoordOperation>>::_Vector_impl_data" = type { ptr, ptr, ptr }
%struct.pj_ctx = type <{ %"class.std::__cxx11::basic_string", i32, i32, i8, i8, [6 x i8], ptr, ptr, ptr, i32, i8, [3 x i8], i32, [4 x i8], %"class.std::__cxx11::basic_string", %"class.std::vector.8", ptr, ptr, ptr, %"class.std::map", i8, [7 x i8], %struct.projFileApiCallbackAndData, %"class.std::__cxx11::basic_string", %"class.std::__cxx11::basic_string", i8, [7 x i8], %"class.std::__cxx11::basic_string", %struct.projNetworkCallbacksAndData, %"class.std::__cxx11::basic_string", i8, [7 x i8], %struct.projGridChunkCache, i32, i32, i32, [4 x i8] }>
%"class.std::vector.8" = type { %"struct.std::_Vector_base.9" }
%"struct.std::_Vector_base.9" = type { %"struct.std::_Vector_base<std::__cxx11::basic_string<char>, std::allocator<std::__cxx11::basic_string<char>>>::_Vector_impl" }
%"struct.std::_Vector_base<std::__cxx11::basic_string<char>, std::allocator<std::__cxx11::basic_string<char>>>::_Vector_impl" = type { %"struct.std::_Vector_base<std::__cxx11::basic_string<char>, std::allocator<std::__cxx11::basic_string<char>>>::_Vector_impl_data" }
%"struct.std::_Vector_base<std::__cxx11::basic_string<char>, std::allocator<std::__cxx11::basic_string<char>>>::_Vector_impl_data" = type { ptr, ptr, ptr }
%"class.std::map" = type { %"class.std::_Rb_tree" }
%"class.std::_Rb_tree" = type { %"struct.std::_Rb_tree<std::__cxx11::basic_string<char>, std::pair<const std::__cxx11::basic_string<char>, std::__cxx11::basic_string<char>>, std::_Select1st<std::pair<const std::__cxx11::basic_string<char>, std::__cxx11::basic_string<char>>>, std::less<std::__cxx11::basic_string<char>>>::_Rb_tree_impl" }
%"struct.std::_Rb_tree<std::__cxx11::basic_string<char>, std::pair<const std::__cxx11::basic_string<char>, std::__cxx11::basic_string<char>>, std::_Select1st<std::pair<const std::__cxx11::basic_string<char>, std::__cxx11::basic_string<char>>>, std::less<std::__cxx11::basic_string<char>>>::_Rb_tree_impl" = type { [8 x i8], %"struct.std::_Rb_tree_header" }
%"struct.std::_Rb_tree_header" = type { %"struct.std::_Rb_tree_node_base", i64 }
%"struct.std::_Rb_tree_node_base" = type { i32, ptr, ptr, ptr }
%struct.projFileApiCallbackAndData = type { ptr, ptr, ptr, ptr, ptr, ptr, ptr, ptr, ptr, ptr, ptr }
%struct.projNetworkCallbacksAndData = type { i8, ptr, ptr, ptr, ptr, ptr }
%struct.projGridChunkCache = type <{ i8, [7 x i8], %"class.std::__cxx11::basic_string", i64, i32, [4 x i8] }>

; Function Attrs: inlinehint mustprogress uwtable
define internal void @_ZL14error_or_coordP8PJconsts8PJ_COORDi(ptr dead_on_unwind noalias writable sret(%union.PJ_COORD) align 8 %0, ptr noundef %1, ptr noundef byval(%union.PJ_COORD) align 8 %2, i32 noundef %3) #5 {
  %5 = alloca ptr, align 8
  %6 = alloca i32, align 4
  store ptr %1, ptr %5, align 8, !tbaa !3
  store i32 %3, ptr %6, align 4, !tbaa !63
  %7 = load ptr, ptr %5, align 8, !tbaa !3
  %8 = getelementptr inbounds nuw %struct.PJconsts, ptr %7, i32 0, i32 0
  %9 = load ptr, ptr %8, align 8, !tbaa !11
  %10 = getelementptr inbounds nuw %struct.pj_ctx, ptr %9, i32 0, i32 1
  %11 = load i32, ptr %10, align 8, !tbaa !39
  %12 = icmp ne i32 %11, 0
  br i1 %12, label %13, label %14

13:                                               ; preds = %4
  call void @_Z16proj_coord_errorv(ptr dead_on_unwind writable sret(%union.PJ_COORD) align 8 %0)
  br label %20

14:                                               ; preds = %4
  %15 = load i32, ptr %6, align 4, !tbaa !63
  %16 = load ptr, ptr %5, align 8, !tbaa !3
  %17 = getelementptr inbounds nuw %struct.PJconsts, ptr %16, i32 0, i32 0
  %18 = load ptr, ptr %17, align 8, !tbaa !11
  %19 = getelementptr inbounds nuw %struct.pj_ctx, ptr %18, i32 0, i32 1
  store i32 %15, ptr %19, align 8, !tbaa !39
  call void @llvm.memcpy.p0.p0.i64(ptr align 8 %0, ptr align 8 %2, i64 32, i1 false), !tbaa.struct !71
  br label %20

20:                                               ; preds = %14, %13
  ret void
}

; Function Attrs: mustprogress uwtable
define { double, double } @_Z6pj_fwd5PJ_LPP8PJconsts(double %0, double %1, ptr noundef %2) #0 {
  %4 = alloca %struct.PJ_XY, align 8
  %5 = alloca %struct.PJ_LP, align 8
  %6 = alloca ptr, align 8
  %7 = alloca %union.PJ_COORD, align 8
  %8 = alloca i32, align 4
  %9 = alloca %union.PJ_COORD, align 8
  %10 = alloca i32, align 4
  %11 = alloca %struct.PJ_XY, align 8
  %12 = alloca %struct.PJ_LP, align 8
  %13 = alloca %struct.PJ_XYZ, align 8
  %14 = alloca %struct.PJ_LPZ, align 8
  %15 = alloca %union.PJ_COORD, align 8
  %16 = alloca %union.PJ_COORD, align 8
  %17 = alloca %union.PJ_COORD, align 8
  %18 = alloca %union.PJ_COORD, align 8
  %19 = getelementptr inbounds nuw { double, double }, ptr %5, i32 0, i32 0
  store double %0, ptr %19, align 8
  %20 = getelementptr inbounds nuw { double, double }, ptr %5, i32 0, i32 1
  store double %1, ptr %20, align 8
  store ptr %2, ptr %6, align 8, !tbaa !3
  call void @llvm.lifetime.start.p0(i64 32, ptr %7) #6
  call void @llvm.memset.p0.i64(ptr align 8 %7, i8 0, i64 32, i1 false)
  call void @llvm.memcpy.p0.p0.i64(ptr align 8 %7, ptr align 8 %5, i64 16, i1 false), !tbaa.struct !8
  call void @llvm.lifetime.start.p0(i64 4, ptr %8) #6
  %21 = load ptr, ptr %6, align 8, !tbaa !3
  %22 = getelementptr inbounds nuw %struct.PJconsts, ptr %21, i32 0, i32 0
  %23 = load ptr, ptr %22, align 8, !tbaa !11
  %24 = getelementptr inbounds nuw %struct.pj_ctx, ptr %23, i32 0, i32 1
  %25 = load i32, ptr %24, align 8, !tbaa !39
  store i32 %25, ptr %8, align 4, !tbaa !63
  %26 = load ptr, ptr %6, align 8, !tbaa !3
  %27 = getelementptr inbounds nuw %struct.PJconsts, ptr %26, i32 0, i32 0
  %28 = load ptr, ptr %27, align 8, !tbaa !11
  %29 = getelementptr inbounds nuw %struct.pj_ctx, ptr %28, i32 0, i32 1
  store i32 0, ptr %29, align 8, !tbaa !39
  %30 = load ptr, ptr %6, align 8, !tbaa !3
  %31 = getelementptr inbounds nuw %struct.PJconsts, ptr %30, i32 0, i32 48
  %32 = load i32, ptr %31, align 4, !tbaa !64
  %33 = icmp ne i32 %32, 0
  br i1 %33, label %36, label %34

34:                                               ; preds = %3
  %35 = load ptr, ptr %6, align 8, !tbaa !3
  call void @_ZL11fwd_prepareP8PJconstsR8PJ_COORD(ptr noundef %35, ptr noundef nonnull align 8 dereferenceable(32) %7)
  br label %36

36:                                               ; preds = %34, %3
  %37 = getelementptr inbounds [4 x double], ptr %7, i64 0, i64 0
  %38 = load double, ptr %37, align 8, !tbaa !65
  %39 = fcmp oeq double 0x7FF0000000000000, %38
  br i1 %39, label %44, label %40

40:                                               ; preds = %36
  %41 = getelementptr inbounds [4 x double], ptr %7, i64 0, i64 1
  %42 = load double, ptr %41, align 8, !tbaa !65
  %43 = fcmp oeq double 0x7FF0000000000000, %42
  br i1 %43, label %44, label %45

44:                                               ; preds = %40, %36
  call void @llvm.lifetime.start.p0(i64 32, ptr %9) #6
  call void @_Z16proj_coord_errorv(ptr dead_on_unwind writable sret(%union.PJ_COORD) align 8 %9)
  call void @llvm.memcpy.p0.p0.i64(ptr align 8 %4, ptr align 8 %9, i64 16, i1 false), !tbaa.struct !8
  call void @llvm.lifetime.end.p0(i64 32, ptr %9) #6
  store i32 1, ptr %10, align 4
  br label %104

45:                                               ; preds = %40
  %46 = load ptr, ptr %6, align 8, !tbaa !3
  %47 = getelementptr inbounds nuw %struct.PJconsts, ptr %46, i32 0, i32 13
  %48 = load ptr, ptr %47, align 8, !tbaa !66
  %49 = icmp ne ptr %48, null
  br i1 %49, label %50, label %64

50:                                               ; preds = %45
  call void @llvm.lifetime.start.p0(i64 16, ptr %11) #6
  %51 = load ptr, ptr %6, align 8, !tbaa !3
  %52 = getelementptr inbounds nuw %struct.PJconsts, ptr %51, i32 0, i32 13
  %53 = load ptr, ptr %52, align 8, !tbaa !66
  call void @llvm.memcpy.p0.p0.i64(ptr align 8 %12, ptr align 8 %7, i64 16, i1 false), !tbaa.struct !8
  %54 = load ptr, ptr %6, align 8, !tbaa !3
  %55 = getelementptr inbounds nuw { double, double }, ptr %12, i32 0, i32 0
  %56 = load double, ptr %55, align 8
  %57 = getelementptr inbounds nuw { double, double }, ptr %12, i32 0, i32 1
  %58 = load double, ptr %57, align 8
  %59 = call { double, double } %53(double %56, double %58, ptr noundef %54)
  %60 = getelementptr inbounds nuw { double, double }, ptr %11, i32 0, i32 0
  %61 = extractvalue { double, double } %59, 0
  store double %61, ptr %60, align 8
  %62 = getelementptr inbounds nuw { double, double }, ptr %11, i32 0, i32 1
  %63 = extractvalue { double, double } %59, 1
  store double %63, ptr %62, align 8
  call void @llvm.memcpy.p0.p0.i64(ptr align 8 %7, ptr align 8 %11, i64 16, i1 false), !tbaa.struct !8
  call void @llvm.lifetime.end.p0(i64 16, ptr %11) #6
  br label %89

64:                                               ; preds = %45
  %65 = load ptr, ptr %6, align 8, !tbaa !3
  %66 = getelementptr inbounds nuw %struct.PJconsts, ptr %65, i32 0, i32 15
  %67 = load ptr, ptr %66, align 8, !tbaa !67
  %68 = icmp ne ptr %67, null
  br i1 %68, label %69, label %74

69:                                               ; preds = %64
  call void @llvm.lifetime.start.p0(i64 24, ptr %13) #6
  %70 = load ptr, ptr %6, align 8, !tbaa !3
  %71 = getelementptr inbounds nuw %struct.PJconsts, ptr %70, i32 0, i32 15
  %72 = load ptr, ptr %71, align 8, !tbaa !67
  call void @llvm.memcpy.p0.p0.i64(ptr align 8 %14, ptr align 8 %7, i64 24, i1 false), !tbaa.struct !68
  %73 = load ptr, ptr %6, align 8, !tbaa !3
  call void %72(ptr dead_on_unwind writable sret(%struct.PJ_XYZ) align 8 %13, ptr noundef byval(%struct.PJ_LPZ) align 8 %14, ptr noundef %73)
  call void @llvm.memcpy.p0.p0.i64(ptr align 8 %7, ptr align 8 %13, i64 24, i1 false), !tbaa.struct !68
  call void @llvm.lifetime.end.p0(i64 24, ptr %13) #6
  br label %88

74:                                               ; preds = %64
  %75 = load ptr, ptr %6, align 8, !tbaa !3
  %76 = getelementptr inbounds nuw %struct.PJconsts, ptr %75, i32 0, i32 17
  %77 = load ptr, ptr %76, align 8, !tbaa !69
  %78 = icmp ne ptr %77, null
  br i1 %78, label %79, label %84

79:                                               ; preds = %74
  %80 = load ptr, ptr %6, align 8, !tbaa !3
  %81 = getelementptr inbounds nuw %struct.PJconsts, ptr %80, i32 0, i32 17
  %82 = load ptr, ptr %81, align 8, !tbaa !69
  %83 = load ptr, ptr %6, align 8, !tbaa !3
  call void %82(ptr noundef nonnull align 8 dereferenceable(32) %7, ptr noundef %83)
  br label %87

84:                                               ; preds = %74
  %85 = load ptr, ptr %6, align 8, !tbaa !3
  %86 = call i32 @proj_errno_set(ptr noundef %85, i32 noundef 4098)
  call void @llvm.lifetime.start.p0(i64 32, ptr %15) #6
  call void @_Z16proj_coord_errorv(ptr dead_on_unwind writable sret(%union.PJ_COORD) align 8 %15)
  call void @llvm.memcpy.p0.p0.i64(ptr align 8 %4, ptr align 8 %15, i64 16, i1 false), !tbaa.struct !8
  call void @llvm.lifetime.end.p0(i64 32, ptr %15) #6
  store i32 1, ptr %10, align 4
  br label %104

87:                                               ; preds = %79
  br label %88

88:                                               ; preds = %87, %69
  br label %89

89:                                               ; preds = %88, %50
  %90 = getelementptr inbounds [4 x double], ptr %7, i64 0, i64 0
  %91 = load double, ptr %90, align 8, !tbaa !65
  %92 = fcmp oeq double 0x7FF0000000000000, %91
  br i1 %92, label %93, label %94

93:                                               ; preds = %89
  call void @llvm.lifetime.start.p0(i64 32, ptr %16) #6
  call void @_Z16proj_coord_errorv(ptr dead_on_unwind writable sret(%union.PJ_COORD) align 8 %16)
  call void @llvm.memcpy.p0.p0.i64(ptr align 8 %4, ptr align 8 %16, i64 16, i1 false), !tbaa.struct !8
  call void @llvm.lifetime.end.p0(i64 32, ptr %16) #6
  store i32 1, ptr %10, align 4
  br label %104

94:                                               ; preds = %89
  %95 = load ptr, ptr %6, align 8, !tbaa !3
  %96 = getelementptr inbounds nuw %struct.PJconsts, ptr %95, i32 0, i32 49
  %97 = load i32, ptr %96, align 8, !tbaa !70
  %98 = icmp ne i32 %97, 0
  br i1 %98, label %101, label %99

99:                                               ; preds = %94
  %100 = load ptr, ptr %6, align 8, !tbaa !3
  call void @_ZL12fwd_finalizeP8PJconstsR8PJ_COORD(ptr noundef %100, ptr noundef nonnull align 8 dereferenceable(32) %7)
  br label %101

101:                                              ; preds = %99, %94
  call void @llvm.lifetime.start.p0(i64 32, ptr %17) #6
  %102 = load ptr, ptr %6, align 8, !tbaa !3
  call void @llvm.memcpy.p0.p0.i64(ptr align 8 %18, ptr align 8 %7, i64 32, i1 false), !tbaa.struct !71
  %103 = load i32, ptr %8, align 4, !tbaa !63
  call void @_ZL14error_or_coordP8PJconsts8PJ_COORDi(ptr dead_on_unwind writable sret(%union.PJ_COORD) align 8 %17, ptr noundef %102, ptr noundef byval(%union.PJ_COORD) align 8 %18, i32 noundef %103)
  call void @llvm.memcpy.p0.p0.i64(ptr align 8 %4, ptr align 8 %17, i64 16, i1 false), !tbaa.struct !8
  call void @llvm.lifetime.end.p0(i64 32, ptr %17) #6
  store i32 1, ptr %10, align 4
  br label %104

104:                                              ; preds = %101, %93, %84, %44
  call void @llvm.lifetime.end.p0(i64 4, ptr %8) #6
  call void @llvm.lifetime.end.p0(i64 32, ptr %7) #6
  %105 = load { double, double }, ptr %4, align 8
  ret { double, double } %105
}