; Function Attrs: mustprogress uwtable
define { double, double } @_Z6pj_fwd5PJ_LPP8PJconsts(double %0, double %1, ptr noundef %2) local_unnamed_addr #0 {
  %4 = alloca %union.PJ_COORD, align 8
  %5 = alloca %union.PJ_COORD, align 8
  %6 = alloca %struct.PJ_XYZ, align 8
  %7 = alloca %union.PJ_COORD, align 8
  %8 = alloca %union.PJ_COORD, align 8
  %9 = alloca %union.PJ_COORD, align 8
  call void @llvm.lifetime.start.p0(i64 32, ptr nonnull %4) #6
  %10 = getelementptr inbounds nuw i8, ptr %4, i64 16
  call void @llvm.memset.p0.i64(ptr noundef nonnull align 8 dereferenceable(16) %10, i8 0, i64 16, i1 false)
  store double %0, ptr %4, align 8, !tbaa !3
  %.sroa.221.0..sroa_idx = getelementptr inbounds nuw i8, ptr %4, i64 8
  store double %1, ptr %.sroa.221.0..sroa_idx, align 8, !tbaa !3
  %11 = load ptr, ptr %2, align 8, !tbaa !7
  %12 = getelementptr inbounds nuw i8, ptr %11, i64 32
  %13 = load i32, ptr %12, align 8, !tbaa !37
  store i32 0, ptr %12, align 8, !tbaa !37
  %14 = getelementptr inbounds nuw i8, ptr %2, i64 364
  %15 = load i32, ptr %14, align 4, !tbaa !61
  %.not = icmp eq i32 %15, 0
  br i1 %.not, label %16, label %17

16:                                               ; preds = %3
  call fastcc void @_ZL11fwd_prepareP8PJconstsR8PJ_COORD(ptr noundef nonnull %2, ptr noundef nonnull align 8 dereferenceable(32) %4)
  %.pre = load double, ptr %4, align 8, !tbaa !62
  %.pre40 = load double, ptr %.sroa.221.0..sroa_idx, align 8
  br label %17

17:                                               ; preds = %16, %3
  %18 = phi double [ %.pre40, %16 ], [ %1, %3 ]
  %19 = phi double [ %.pre, %16 ], [ %0, %3 ]
  %20 = fcmp oeq double %19, 0x7FF0000000000000
  %21 = fcmp oeq double %18, 0x7FF0000000000000
  %or.cond = select i1 %20, i1 true, i1 %21
  br i1 %or.cond, label %22, label %23

22:                                               ; preds = %17
  call void @llvm.lifetime.start.p0(i64 32, ptr nonnull %5) #6
  call void @_Z16proj_coord_errorv(ptr dead_on_unwind nonnull writable sret(%union.PJ_COORD) align 8 %5)
  %.sroa.022.0.copyload = load double, ptr %5, align 8, !tbaa !3
  %.sroa.5.0..sroa_idx = getelementptr inbounds nuw i8, ptr %5, i64 8
  %.sroa.5.0.copyload = load double, ptr %.sroa.5.0..sroa_idx, align 8, !tbaa !3
  call void @llvm.lifetime.end.p0(i64 32, ptr nonnull %5) #6
  br label %53

23:                                               ; preds = %17
  %24 = getelementptr inbounds nuw i8, ptr %2, i64 104
  %25 = load ptr, ptr %24, align 8, !tbaa !63
  %.not35 = icmp eq ptr %25, null
  br i1 %.not35, label %30, label %26

26:                                               ; preds = %23
  %27 = tail call { double, double } %25(double %19, double %18, ptr noundef nonnull %2)
  %28 = extractvalue { double, double } %27, 0
  %29 = extractvalue { double, double } %27, 1
  store double %28, ptr %4, align 8, !tbaa !3
  store double %29, ptr %.sroa.221.0..sroa_idx, align 8, !tbaa !3
  br label %40

30:                                               ; preds = %23
  %31 = getelementptr inbounds nuw i8, ptr %2, i64 120
  %32 = load ptr, ptr %31, align 8, !tbaa !64
  %.not36 = icmp eq ptr %32, null
  br i1 %.not36, label %34, label %33

33:                                               ; preds = %30
  call void @llvm.lifetime.start.p0(i64 24, ptr nonnull %6) #6
  call void %32(ptr dead_on_unwind nonnull writable sret(%struct.PJ_XYZ) align 8 %6, ptr noundef nonnull byval(%struct.PJ_LPZ) align 8 %4, ptr noundef nonnull %2)
  call void @llvm.memcpy.p0.p0.i64(ptr noundef nonnull align 8 dereferenceable(24) %4, ptr noundef nonnull align 8 dereferenceable(24) %6, i64 24, i1 false), !tbaa.struct !65
  call void @llvm.lifetime.end.p0(i64 24, ptr nonnull %6) #6
  br label %thread-pre-split

34:                                               ; preds = %30
  %35 = getelementptr inbounds nuw i8, ptr %2, i64 136
  %36 = load ptr, ptr %35, align 8, !tbaa !66
  %.not37 = icmp eq ptr %36, null
  br i1 %.not37, label %38, label %37

37:                                               ; preds = %34
  call void %36(ptr noundef nonnull align 8 dereferenceable(32) %4, ptr noundef nonnull %2)
  br label %thread-pre-split

38:                                               ; preds = %34
  %39 = tail call i32 @proj_errno_set(ptr noundef nonnull %2, i32 noundef 4098)
  call void @llvm.lifetime.start.p0(i64 32, ptr nonnull %7) #6
  call void @_Z16proj_coord_errorv(ptr dead_on_unwind nonnull writable sret(%union.PJ_COORD) align 8 %7)
  %.sroa.022.0.copyload23 = load double, ptr %7, align 8, !tbaa !3
  %.sroa.5.0..sroa_idx26 = getelementptr inbounds nuw i8, ptr %7, i64 8
  %.sroa.5.0.copyload27 = load double, ptr %.sroa.5.0..sroa_idx26, align 8, !tbaa !3
  call void @llvm.lifetime.end.p0(i64 32, ptr nonnull %7) #6
  br label %53

thread-pre-split:                                 ; preds = %37, %33
  %.pr = load double, ptr %4, align 8, !tbaa !62
  br label %40

40:                                               ; preds = %thread-pre-split, %26
  %41 = phi double [ %.pr, %thread-pre-split ], [ %28, %26 ]
  %42 = fcmp oeq double %41, 0x7FF0000000000000
  br i1 %42, label %43, label %44

43:                                               ; preds = %40
  call void @llvm.lifetime.start.p0(i64 32, ptr nonnull %8) #6
  call void @_Z16proj_coord_errorv(ptr dead_on_unwind nonnull writable sret(%union.PJ_COORD) align 8 %8)
  %.sroa.022.0.copyload24 = load double, ptr %8, align 8, !tbaa !3
  %.sroa.5.0..sroa_idx28 = getelementptr inbounds nuw i8, ptr %8, i64 8
  %.sroa.5.0.copyload29 = load double, ptr %.sroa.5.0..sroa_idx28, align 8, !tbaa !3
  call void @llvm.lifetime.end.p0(i64 32, ptr nonnull %8) #6
  br label %53

44:                                               ; preds = %40
  %45 = getelementptr inbounds nuw i8, ptr %2, i64 368
  %46 = load i32, ptr %45, align 8, !tbaa !67
  %.not38 = icmp eq i32 %46, 0
  br i1 %.not38, label %47, label %48

47:                                               ; preds = %44
  call fastcc void @_ZL12fwd_finalizeP8PJconstsR8PJ_COORD(ptr noundef nonnull %2, ptr noundef nonnull align 8 dereferenceable(32) %4)
  br label %48

48:                                               ; preds = %47, %44
  call void @llvm.lifetime.start.p0(i64 32, ptr nonnull %9) #6
  %.val = load ptr, ptr %2, align 8, !tbaa !7
  %49 = getelementptr inbounds nuw i8, ptr %.val, i64 32
  %50 = load i32, ptr %49, align 8, !tbaa !37, !noalias !68
  %.not.i = icmp eq i32 %50, 0
  br i1 %.not.i, label %52, label %51

51:                                               ; preds = %48
  call void @_Z16proj_coord_errorv(ptr dead_on_unwind nonnull writable sret(%union.PJ_COORD) align 8 %9)
  br label %_ZL14error_or_coordP8PJconsts8PJ_COORDi.exit

52:                                               ; preds = %48
  store i32 %13, ptr %49, align 8, !tbaa !37, !noalias !68
  call void @llvm.memcpy.p0.p0.i64(ptr noundef nonnull align 8 dereferenceable(32) %9, ptr noundef nonnull align 8 dereferenceable(32) %4, i64 32, i1 false)
  br label %_ZL14error_or_coordP8PJconsts8PJ_COORDi.exit

_ZL14error_or_coordP8PJconsts8PJ_COORDi.exit:     ; preds = %51, %52
  %.sroa.022.0.copyload25 = load double, ptr %9, align 8, !tbaa !3
  %.sroa.5.0..sroa_idx30 = getelementptr inbounds nuw i8, ptr %9, i64 8
  %.sroa.5.0.copyload31 = load double, ptr %.sroa.5.0..sroa_idx30, align 8, !tbaa !3
  call void @llvm.lifetime.end.p0(i64 32, ptr nonnull %9) #6
  br label %53

53:                                               ; preds = %_ZL14error_or_coordP8PJconsts8PJ_COORDi.exit, %43, %38, %22
  %.sroa.022.0 = phi double [ %.sroa.022.0.copyload, %22 ], [ %.sroa.022.0.copyload24, %43 ], [ %.sroa.022.0.copyload25, %_ZL14error_or_coordP8PJconsts8PJ_COORDi.exit ], [ %.sroa.022.0.copyload23, %38 ]
  %.sroa.5.0 = phi double [ %.sroa.5.0.copyload, %22 ], [ %.sroa.5.0.copyload29, %43 ], [ %.sroa.5.0.copyload31, %_ZL14error_or_coordP8PJconsts8PJ_COORDi.exit ], [ %.sroa.5.0.copyload27, %38 ]
  call void @llvm.lifetime.end.p0(i64 32, ptr nonnull %4) #6
  %.fca.0.insert = insertvalue { double, double } poison, double %.sroa.022.0, 0
  %.fca.1.insert = insertvalue { double, double } %.fca.0.insert, double %.sroa.5.0, 1
  ret { double, double } %.fca.1.insert
}